target datalayout = "e-m:e-p270:32:32-p271:32:32-p272:64:64-i64:64-i128:128-f80:128-n8:16:32:64-S128"
target triple = "x86_64-pc-linux-gnu"

%"class.folly::EventBaseEvent" = type { %struct.event, ptr, ptr, ptr, %"struct.folly::EventCallback" }
%struct.event = type { %struct.event_callback, %union.anon.0, i32, ptr, %union.anon.2, i16, i16, %struct.timeval }
%struct.event_callback = type { %struct.anon, i16, i8, i8, %union.anon, ptr }
%struct.anon = type { ptr, ptr }
%union.anon = type { ptr }
%union.anon.0 = type { %struct.anon.1 }
%struct.anon.1 = type { ptr, ptr }
%union.anon.2 = type { %struct.anon.3 }
%struct.anon.3 = type { %struct.anon.4, %struct.timeval }
%struct.anon.4 = type { ptr, ptr }
%struct.timeval = type { i64, i64 }
%"struct.folly::EventCallback" = type { i32, %union.anon.7 }
%union.anon.7 = type { ptr }

; Function Attrs: mustprogress uwtable
define noundef i32 @_ZN5folly14EventBaseEvent17eb_event_base_setEPNS_9EventBaseE(ptr noundef nonnull align 8 dereferenceable(168) %0, ptr noundef %1) #0 align 2 {
  %3 = alloca i32, align 4
  %4 = alloca ptr, align 8
  %5 = alloca ptr, align 8
  %6 = alloca ptr, align 8
  %7 = alloca i32, align 4
  store ptr %0, ptr %4, align 8, !tbaa !7
  store ptr %1, ptr %5, align 8, !tbaa !12
  %8 = load ptr, ptr %4, align 8
  %9 = load ptr, ptr %5, align 8, !tbaa !12
  %10 = getelementptr inbounds nuw %"class.folly::EventBaseEvent", ptr %8, i32 0, i32 1
  store ptr %9, ptr %10, align 8, !tbaa !14
  call void @llvm.lifetime.start.p0(i64 8, ptr %6) #12
  %11 = getelementptr inbounds nuw %"class.folly::EventBaseEvent", ptr %8, i32 0, i32 1
  %12 = load ptr, ptr %11, align 8, !tbaa !14
  %13 = icmp ne ptr %12, null
  br i1 %13, label %14, label %18

14:                                               ; preds = %2
  %15 = getelementptr inbounds nuw %"class.folly::EventBaseEvent", ptr %8, i32 0, i32 1
  %16 = load ptr, ptr %15, align 8, !tbaa !14
  %17 = call noundef ptr @_ZNK5folly9EventBase15getLibeventBaseEv(ptr noundef nonnull align 16 dereferenceable(632) %16)
  br label %19

18:                                               ; preds = %2
  br label %19

19:                                               ; preds = %18, %14
  %20 = phi ptr [ %17, %14 ], [ null, %18 ]
  store ptr %20, ptr %6, align 8, !tbaa !29
  %21 = load ptr, ptr %6, align 8, !tbaa !29
  %22 = icmp ne ptr %21, null
  br i1 %22, label %23, label %27

23:                                               ; preds = %19
  %24 = load ptr, ptr %6, align 8, !tbaa !29
  %25 = getelementptr inbounds nuw %"class.folly::EventBaseEvent", ptr %8, i32 0, i32 0
  %26 = call i32 @event_base_set(ptr noundef %24, ptr noundef %25)
  store i32 %26, ptr %3, align 4
  store i32 1, ptr %7, align 4
  br label %28

27:                                               ; preds = %19
  store i32 0, ptr %3, align 4
  store i32 1, ptr %7, align 4
  br label %28

28:                                               ; preds = %27, %23
  call void @llvm.lifetime.end.p0(i64 8, ptr %6) #12
  %29 = load i32, ptr %3, align 4
  ret i32 %29
}