; Function Attrs: mustprogress uwtable
define noundef i32 @_ZN5folly14EventBaseEvent17eb_event_base_setEPNS_9EventBaseE(ptr noundef nonnull align 8 dereferenceable(168) initializes((128, 136)) %0, ptr noundef %1) local_unnamed_addr #0 align 2 {
  %3 = getelementptr inbounds nuw i8, ptr %0, i64 128
  store ptr %1, ptr %3, align 8, !tbaa !7
  %.not = icmp eq ptr %1, null
  br i1 %.not, label %.thread, label %4

4:                                                ; preds = %2
  %5 = tail call noundef ptr @_ZNK5folly9EventBase15getLibeventBaseEv(ptr noundef nonnull align 16 dereferenceable(632) %1)
  %.not6 = icmp eq ptr %5, null
  br i1 %.not6, label %.thread, label %6

6:                                                ; preds = %4
  %7 = tail call i32 @event_base_set(ptr noundef nonnull %5, ptr noundef nonnull %0)
  br label %.thread

.thread:                                          ; preds = %2, %4, %6
  %.0 = phi i32 [ %7, %6 ], [ 0, %4 ], [ 0, %2 ]
  ret i32 %.0
}